target datalayout = "e-m:e-p270:32:32-p271:32:32-p272:64:64-i64:64-i128:128-f80:128-n8:16:32:64-S128"
target triple = "x86_64-pc-linux-gnu"

%struct.JNINativeInterface_ = type { ptr, ptr, ptr, ptr, ptr, ptr, ptr, ptr, ptr, ptr, ptr, ptr, ptr, ptr, ptr, ptr, ptr, ptr, ptr, ptr, ptr, ptr, ptr, ptr, ptr, ptr, ptr, ptr, ptr, ptr, ptr, ptr, ptr, ptr, ptr, ptr, ptr, ptr, ptr, ptr, ptr, ptr, ptr, ptr, ptr, ptr, ptr, ptr, ptr, ptr, ptr, ptr, ptr, ptr, ptr, ptr, ptr, ptr, ptr, ptr, ptr, ptr, ptr, ptr, ptr, ptr, ptr, ptr, ptr, ptr, ptr, ptr, ptr, ptr, ptr, ptr, ptr, ptr, ptr, ptr, ptr, ptr, ptr, ptr, ptr, ptr, ptr, ptr, ptr, ptr, ptr, ptr, ptr, ptr, ptr, ptr, ptr, ptr, ptr, ptr, ptr, ptr, ptr, ptr, ptr, ptr, ptr, ptr, ptr, ptr, ptr, ptr, ptr, ptr, ptr, ptr, ptr, ptr, ptr, ptr, ptr, ptr, ptr, ptr, ptr, ptr, ptr, ptr, ptr, ptr, ptr, ptr, ptr, ptr, ptr, ptr, ptr, ptr, ptr, ptr, ptr, ptr, ptr, ptr, ptr, ptr, ptr, ptr, ptr, ptr, ptr, ptr, ptr, ptr, ptr, ptr, ptr, ptr, ptr, ptr, ptr, ptr, ptr, ptr, ptr, ptr, ptr, ptr, ptr, ptr, ptr, ptr, ptr, ptr, ptr, ptr, ptr, ptr, ptr, ptr, ptr, ptr, ptr, ptr, ptr, ptr, ptr, ptr, ptr, ptr, ptr, ptr, ptr, ptr, ptr, ptr, ptr, ptr, ptr, ptr, ptr, ptr, ptr, ptr, ptr, ptr, ptr, ptr, ptr, ptr, ptr, ptr, ptr, ptr, ptr, ptr, ptr, ptr, ptr, ptr, ptr, ptr, ptr, ptr, ptr, ptr, ptr, ptr, ptr, ptr, ptr, ptr, ptr, ptr, ptr }
%struct.XTextProperty = type { ptr, i64, i32, i64 }

@.str = private unnamed_addr constant [1 x i8] zeroinitializer, align 1
@Java_sun_awt_X11_XlibWrapper_XTextPropertyToStringList.stringClass = internal global ptr null, align 8
@.str.9 = private unnamed_addr constant [17 x i8] c"java/lang/String\00", align 1

; Function Attrs: nounwind uwtable
define ptr @Java_sun_awt_X11_XlibWrapper_XTextPropertyToStringList(ptr noundef %0, ptr noundef %1, ptr noundef %2, i64 noundef %3) #0 {
  %5 = alloca ptr, align 8
  %6 = alloca ptr, align 8
  %7 = alloca ptr, align 8
  %8 = alloca ptr, align 8
  %9 = alloca i64, align 8
  %10 = alloca %struct.XTextProperty, align 8
  %11 = alloca ptr, align 8
  %12 = alloca ptr, align 8
  %13 = alloca i32, align 4
  %14 = alloca ptr, align 8
  %15 = alloca i32, align 4
  %16 = alloca i32, align 4
  %17 = alloca i8, align 1
  %18 = alloca ptr, align 8
  %19 = alloca ptr, align 8
  store ptr %0, ptr %6, align 8
  store ptr %1, ptr %7, align 8
  store ptr %2, ptr %8, align 8
  store i64 %3, ptr %9, align 8
  store ptr null, ptr %12, align 8
  store i32 0, ptr %13, align 4
  store ptr null, ptr %14, align 8
  store i8 0, ptr %17, align 1
  store ptr null, ptr %18, align 8
  %20 = load ptr, ptr @Java_sun_awt_X11_XlibWrapper_XTextPropertyToStringList.stringClass, align 8
  %21 = icmp eq ptr %20, null
  br i1 %21, label %22, label %70

22:                                               ; preds = %4
  %23 = load ptr, ptr %6, align 8
  %24 = load ptr, ptr %23, align 8
  %25 = getelementptr inbounds %struct.JNINativeInterface_, ptr %24, i32 0, i32 6
  %26 = load ptr, ptr %25, align 8
  %27 = load ptr, ptr %6, align 8
  %28 = call ptr %26(ptr noundef %27, ptr noundef @.str.9)
  store ptr %28, ptr %18, align 8
  %29 = load ptr, ptr %6, align 8
  %30 = load ptr, ptr %29, align 8
  %31 = getelementptr inbounds %struct.JNINativeInterface_, ptr %30, i32 0, i32 228
  %32 = load ptr, ptr %31, align 8
  %33 = load ptr, ptr %6, align 8
  %34 = call zeroext i8 %32(ptr noundef %33)
  %35 = icmp ne i8 %34, 0
  br i1 %35, label %36, label %47

36:                                               ; preds = %22
  %37 = load ptr, ptr %6, align 8
  %38 = load ptr, ptr %37, align 8
  %39 = getelementptr inbounds %struct.JNINativeInterface_, ptr %38, i32 0, i32 16
  %40 = load ptr, ptr %39, align 8
  %41 = load ptr, ptr %6, align 8
  call void %40(ptr noundef %41)
  %42 = load ptr, ptr %6, align 8
  %43 = load ptr, ptr %42, align 8
  %44 = getelementptr inbounds %struct.JNINativeInterface_, ptr %43, i32 0, i32 17
  %45 = load ptr, ptr %44, align 8
  %46 = load ptr, ptr %6, align 8
  call void %45(ptr noundef %46)
  br label %47

47:                                               ; preds = %36, %22
  %48 = load ptr, ptr %18, align 8
  %49 = icmp eq ptr %48, null
  br i1 %49, label %50, label %51

50:                                               ; preds = %47
  store ptr null, ptr %5, align 8
  br label %247

51:                                               ; preds = %47
  %52 = load ptr, ptr %6, align 8
  %53 = load ptr, ptr %52, align 8
  %54 = getelementptr inbounds %struct.JNINativeInterface_, ptr %53, i32 0, i32 21
  %55 = load ptr, ptr %54, align 8
  %56 = load ptr, ptr %6, align 8
  %57 = load ptr, ptr %18, align 8
  %58 = call ptr %55(ptr noundef %56, ptr noundef %57)
  store ptr %58, ptr @Java_sun_awt_X11_XlibWrapper_XTextPropertyToStringList.stringClass, align 8
  %59 = load ptr, ptr %6, align 8
  %60 = load ptr, ptr %59, align 8
  %61 = getelementptr inbounds %struct.JNINativeInterface_, ptr %60, i32 0, i32 23
  %62 = load ptr, ptr %61, align 8
  %63 = load ptr, ptr %6, align 8
  %64 = load ptr, ptr %18, align 8
  call void %62(ptr noundef %63, ptr noundef %64)
  %65 = load ptr, ptr @Java_sun_awt_X11_XlibWrapper_XTextPropertyToStringList.stringClass, align 8
  %66 = icmp eq ptr %65, null
  br i1 %66, label %67, label %69

67:                                               ; preds = %51
  %68 = load ptr, ptr %6, align 8
  call void @JNU_ThrowOutOfMemoryError(ptr noundef %68, ptr noundef @.str)
  store ptr null, ptr %5, align 8
  br label %247

69:                                               ; preds = %51
  br label %70

70:                                               ; preds = %69, %4
  %71 = load ptr, ptr %6, align 8
  %72 = load ptr, ptr %71, align 8
  %73 = getelementptr inbounds %struct.JNINativeInterface_, ptr %72, i32 0, i32 171
  %74 = load ptr, ptr %73, align 8
  %75 = load ptr, ptr %6, align 8
  %76 = load ptr, ptr %8, align 8
  %77 = call i32 %74(ptr noundef %75, ptr noundef %76)
  store i32 %77, ptr %16, align 4
  %78 = load i32, ptr %16, align 4
  %79 = icmp eq i32 %78, 0
  br i1 %79, label %80, label %88

80:                                               ; preds = %70
  %81 = load ptr, ptr %6, align 8
  %82 = load ptr, ptr %81, align 8
  %83 = getelementptr inbounds %struct.JNINativeInterface_, ptr %82, i32 0, i32 172
  %84 = load ptr, ptr %83, align 8
  %85 = load ptr, ptr %6, align 8
  %86 = load ptr, ptr @Java_sun_awt_X11_XlibWrapper_XTextPropertyToStringList.stringClass, align 8
  %87 = call ptr %84(ptr noundef %85, i32 noundef 0, ptr noundef %86, ptr noundef null)
  store ptr %87, ptr %5, align 8
  br label %247

88:                                               ; preds = %70
  %89 = load ptr, ptr %6, align 8
  %90 = load ptr, ptr %89, align 8
  %91 = getelementptr inbounds %struct.JNINativeInterface_, ptr %90, i32 0, i32 184
  %92 = load ptr, ptr %91, align 8
  %93 = load ptr, ptr %6, align 8
  %94 = load ptr, ptr %8, align 8
  %95 = call ptr %92(ptr noundef %93, ptr noundef %94, ptr noundef %17)
  store ptr %95, ptr %11, align 8
  %96 = load ptr, ptr %11, align 8
  %97 = icmp eq ptr %96, null
  br i1 %97, label %98, label %99

98:                                               ; preds = %88
  store ptr null, ptr %5, align 8
  br label %247

99:                                               ; preds = %88
  %100 = load i64, ptr %9, align 8
  %101 = getelementptr inbounds %struct.XTextProperty, ptr %10, i32 0, i32 1
  store i64 %100, ptr %101, align 8
  %102 = load ptr, ptr %11, align 8
  %103 = getelementptr inbounds %struct.XTextProperty, ptr %10, i32 0, i32 0
  store ptr %102, ptr %103, align 8
  %104 = load i32, ptr %16, align 4
  %105 = sext i32 %104 to i64
  %106 = getelementptr inbounds %struct.XTextProperty, ptr %10, i32 0, i32 3
  store i64 %105, ptr %106, align 8
  %107 = getelementptr inbounds %struct.XTextProperty, ptr %10, i32 0, i32 2
  store i32 8, ptr %107, align 8
  %108 = call i32 @XTextPropertyToStringList(ptr noundef %10, ptr noundef %12, ptr noundef %13)
  %109 = icmp eq i32 %108, 0
  br i1 %109, label %110, label %118

110:                                              ; preds = %99
  %111 = load ptr, ptr %6, align 8
  %112 = load ptr, ptr %111, align 8
  %113 = getelementptr inbounds %struct.JNINativeInterface_, ptr %112, i32 0, i32 192
  %114 = load ptr, ptr %113, align 8
  %115 = load ptr, ptr %6, align 8
  %116 = load ptr, ptr %8, align 8
  %117 = load ptr, ptr %11, align 8
  call void %114(ptr noundef %115, ptr noundef %116, ptr noundef %117, i32 noundef 2)
  store ptr null, ptr %5, align 8
  br label %247

118:                                              ; preds = %99
  %119 = load ptr, ptr %6, align 8
  %120 = load ptr, ptr %119, align 8
  %121 = getelementptr inbounds %struct.JNINativeInterface_, ptr %120, i32 0, i32 192
  %122 = load ptr, ptr %121, align 8
  %123 = load ptr, ptr %6, align 8
  %124 = load ptr, ptr %8, align 8
  %125 = load ptr, ptr %11, align 8
  call void %122(ptr noundef %123, ptr noundef %124, ptr noundef %125, i32 noundef 2)
  %126 = load i32, ptr %13, align 4
  %127 = icmp eq i32 %126, 0
  br i1 %127, label %128, label %136

128:                                              ; preds = %118
  %129 = load ptr, ptr %6, align 8
  %130 = load ptr, ptr %129, align 8
  %131 = getelementptr inbounds %struct.JNINativeInterface_, ptr %130, i32 0, i32 172
  %132 = load ptr, ptr %131, align 8
  %133 = load ptr, ptr %6, align 8
  %134 = load ptr, ptr @Java_sun_awt_X11_XlibWrapper_XTextPropertyToStringList.stringClass, align 8
  %135 = call ptr %132(ptr noundef %133, i32 noundef 0, ptr noundef %134, ptr noundef null)
  store ptr %135, ptr %5, align 8
  br label %247

136:                                              ; preds = %118
  %137 = load ptr, ptr %6, align 8
  %138 = load ptr, ptr %137, align 8
  %139 = getelementptr inbounds %struct.JNINativeInterface_, ptr %138, i32 0, i32 172
  %140 = load ptr, ptr %139, align 8
  %141 = load ptr, ptr %6, align 8
  %142 = load i32, ptr %13, align 4
  %143 = load ptr, ptr @Java_sun_awt_X11_XlibWrapper_XTextPropertyToStringList.stringClass, align 8
  %144 = call ptr %140(ptr noundef %141, i32 noundef %142, ptr noundef %143, ptr noundef null)
  store ptr %144, ptr %14, align 8
  %145 = load ptr, ptr %6, align 8
  %146 = load ptr, ptr %145, align 8
  %147 = getelementptr inbounds %struct.JNINativeInterface_, ptr %146, i32 0, i32 228
  %148 = load ptr, ptr %147, align 8
  %149 = load ptr, ptr %6, align 8
  %150 = call zeroext i8 %148(ptr noundef %149)
  %151 = icmp ne i8 %150, 0
  br i1 %151, label %152, label %163

152:                                              ; preds = %136
  %153 = load ptr, ptr %6, align 8
  %154 = load ptr, ptr %153, align 8
  %155 = getelementptr inbounds %struct.JNINativeInterface_, ptr %154, i32 0, i32 16
  %156 = load ptr, ptr %155, align 8
  %157 = load ptr, ptr %6, align 8
  call void %156(ptr noundef %157)
  %158 = load ptr, ptr %6, align 8
  %159 = load ptr, ptr %158, align 8
  %160 = getelementptr inbounds %struct.JNINativeInterface_, ptr %159, i32 0, i32 17
  %161 = load ptr, ptr %160, align 8
  %162 = load ptr, ptr %6, align 8
  call void %161(ptr noundef %162)
  br label %244

163:                                              ; preds = %136
  %164 = load ptr, ptr %14, align 8
  %165 = icmp eq ptr %164, null
  br i1 %165, label %166, label %167

166:                                              ; preds = %163
  br label %244

167:                                              ; preds = %163
  store i32 0, ptr %15, align 4
  br label %168

168:                                              ; preds = %240, %167
  %169 = load i32, ptr %15, align 4
  %170 = load i32, ptr %13, align 4
  %171 = icmp slt i32 %169, %170
  br i1 %171, label %172, label %243

172:                                              ; preds = %168
  %173 = load ptr, ptr %6, align 8
  %174 = load ptr, ptr %173, align 8
  %175 = getelementptr inbounds %struct.JNINativeInterface_, ptr %174, i32 0, i32 167
  %176 = load ptr, ptr %175, align 8
  %177 = load ptr, ptr %6, align 8
  %178 = load ptr, ptr %12, align 8
  %179 = load i32, ptr %15, align 4
  %180 = sext i32 %179 to i64
  %181 = getelementptr inbounds ptr, ptr %178, i64 %180
  %182 = load ptr, ptr %181, align 8
  %183 = call ptr %176(ptr noundef %177, ptr noundef %182)
  store ptr %183, ptr %19, align 8
  %184 = load ptr, ptr %6, align 8
  %185 = load ptr, ptr %184, align 8
  %186 = getelementptr inbounds %struct.JNINativeInterface_, ptr %185, i32 0, i32 228
  %187 = load ptr, ptr %186, align 8
  %188 = load ptr, ptr %6, align 8
  %189 = call zeroext i8 %187(ptr noundef %188)
  %190 = icmp ne i8 %189, 0
  br i1 %190, label %191, label %202

191:                                              ; preds = %172
  %192 = load ptr, ptr %6, align 8
  %193 = load ptr, ptr %192, align 8
  %194 = getelementptr inbounds %struct.JNINativeInterface_, ptr %193, i32 0, i32 16
  %195 = load ptr, ptr %194, align 8
  %196 = load ptr, ptr %6, align 8
  call void %195(ptr noundef %196)
  %197 = load ptr, ptr %6, align 8
  %198 = load ptr, ptr %197, align 8
  %199 = getelementptr inbounds %struct.JNINativeInterface_, ptr %198, i32 0, i32 17
  %200 = load ptr, ptr %199, align 8
  %201 = load ptr, ptr %6, align 8
  call void %200(ptr noundef %201)
  br label %244

202:                                              ; preds = %172
  %203 = load ptr, ptr %19, align 8
  %204 = icmp eq ptr %203, null
  br i1 %204, label %205, label %206

205:                                              ; preds = %202
  br label %244

206:                                              ; preds = %202
  %207 = load ptr, ptr %6, align 8
  %208 = load ptr, ptr %207, align 8
  %209 = getelementptr inbounds %struct.JNINativeInterface_, ptr %208, i32 0, i32 174
  %210 = load ptr, ptr %209, align 8
  %211 = load ptr, ptr %6, align 8
  %212 = load ptr, ptr %14, align 8
  %213 = load i32, ptr %15, align 4
  %214 = load ptr, ptr %19, align 8
  call void %210(ptr noundef %211, ptr noundef %212, i32 noundef %213, ptr noundef %214)
  %215 = load ptr, ptr %6, align 8
  %216 = load ptr, ptr %215, align 8
  %217 = getelementptr inbounds %struct.JNINativeInterface_, ptr %216, i32 0, i32 228
  %218 = load ptr, ptr %217, align 8
  %219 = load ptr, ptr %6, align 8
  %220 = call zeroext i8 %218(ptr noundef %219)
  %221 = icmp ne i8 %220, 0
  br i1 %221, label %222, label %233

222:                                              ; preds = %206
  %223 = load ptr, ptr %6, align 8
  %224 = load ptr, ptr %223, align 8
  %225 = getelementptr inbounds %struct.JNINativeInterface_, ptr %224, i32 0, i32 16
  %226 = load ptr, ptr %225, align 8
  %227 = load ptr, ptr %6, align 8
  call void %226(ptr noundef %227)
  %228 = load ptr, ptr %6, align 8
  %229 = load ptr, ptr %228, align 8
  %230 = getelementptr inbounds %struct.JNINativeInterface_, ptr %229, i32 0, i32 17
  %231 = load ptr, ptr %230, align 8
  %232 = load ptr, ptr %6, align 8
  call void %231(ptr noundef %232)
  br label %244

233:                                              ; preds = %206
  %234 = load ptr, ptr %6, align 8
  %235 = load ptr, ptr %234, align 8
  %236 = getelementptr inbounds %struct.JNINativeInterface_, ptr %235, i32 0, i32 23
  %237 = load ptr, ptr %236, align 8
  %238 = load ptr, ptr %6, align 8
  %239 = load ptr, ptr %19, align 8
  call void %237(ptr noundef %238, ptr noundef %239)
  br label %240

240:                                              ; preds = %233
  %241 = load i32, ptr %15, align 4
  %242 = add nsw i32 %241, 1
  store i32 %242, ptr %15, align 4
  br label %168, !llvm.loop !11

243:                                              ; preds = %168
  br label %244

244:                                              ; preds = %243, %222, %205, %191, %166, %152
  %245 = load ptr, ptr %12, align 8
  call void @XFreeStringList(ptr noundef %245)
  %246 = load ptr, ptr %14, align 8
  store ptr %246, ptr %5, align 8
  br label %247

247:                                              ; preds = %244, %128, %110, %98, %80, %67, %50
  %248 = load ptr, ptr %5, align 8
  ret ptr %248
}