; Function Attrs: nounwind uwtable
define ptr @Java_sun_awt_X11_XlibWrapper_XTextPropertyToStringList(ptr noundef %0, ptr nocapture noundef readnone %1, ptr noundef %2, i64 noundef %3) local_unnamed_addr #0 {
  %5 = alloca %struct.XTextProperty, align 8
  %6 = alloca ptr, align 8
  %7 = alloca i32, align 4
  %8 = alloca i8, align 1
  store ptr null, ptr %6, align 8
  store i32 0, ptr %7, align 4
  store i8 0, ptr %8, align 1
  %9 = load ptr, ptr @Java_sun_awt_X11_XlibWrapper_XTextPropertyToStringList.stringClass, align 8
  %10 = icmp eq ptr %9, null
  br i1 %10, label %11, label %40

11:                                               ; preds = %4
  %12 = load ptr, ptr %0, align 8
  %13 = getelementptr inbounds i8, ptr %12, i64 48
  %14 = load ptr, ptr %13, align 8
  %15 = tail call ptr %14(ptr noundef nonnull %0, ptr noundef nonnull @.str.9) #14
  %16 = load ptr, ptr %0, align 8
  %17 = getelementptr inbounds i8, ptr %16, i64 1824
  %18 = load ptr, ptr %17, align 8
  %19 = tail call zeroext i8 %18(ptr noundef nonnull %0) #14
  %.not = icmp eq i8 %19, 0
  br i1 %.not, label %27, label %20

20:                                               ; preds = %11
  %21 = load ptr, ptr %0, align 8
  %22 = getelementptr inbounds i8, ptr %21, i64 128
  %23 = load ptr, ptr %22, align 8
  tail call void %23(ptr noundef nonnull %0) #14
  %24 = load ptr, ptr %0, align 8
  %25 = getelementptr inbounds i8, ptr %24, i64 136
  %26 = load ptr, ptr %25, align 8
  tail call void %26(ptr noundef nonnull %0) #14
  br label %27

27:                                               ; preds = %20, %11
  %28 = icmp eq ptr %15, null
  br i1 %28, label %122, label %29

29:                                               ; preds = %27
  %30 = load ptr, ptr %0, align 8
  %31 = getelementptr inbounds i8, ptr %30, i64 168
  %32 = load ptr, ptr %31, align 8
  %33 = tail call ptr %32(ptr noundef nonnull %0, ptr noundef nonnull %15) #14
  store ptr %33, ptr @Java_sun_awt_X11_XlibWrapper_XTextPropertyToStringList.stringClass, align 8
  %34 = load ptr, ptr %0, align 8
  %35 = getelementptr inbounds i8, ptr %34, i64 184
  %36 = load ptr, ptr %35, align 8
  tail call void %36(ptr noundef nonnull %0, ptr noundef nonnull %15) #14
  %37 = load ptr, ptr @Java_sun_awt_X11_XlibWrapper_XTextPropertyToStringList.stringClass, align 8
  %38 = icmp eq ptr %37, null
  br i1 %38, label %39, label %40

39:                                               ; preds = %29
  tail call void @JNU_ThrowOutOfMemoryError(ptr noundef nonnull %0, ptr noundef nonnull @.str) #14
  br label %122

40:                                               ; preds = %29, %4
  %41 = load ptr, ptr %0, align 8
  %42 = getelementptr inbounds i8, ptr %41, i64 1368
  %43 = load ptr, ptr %42, align 8
  %44 = tail call i32 %43(ptr noundef nonnull %0, ptr noundef %2) #14
  %45 = icmp eq i32 %44, 0
  %46 = load ptr, ptr %0, align 8
  br i1 %45, label %47, label %52

47:                                               ; preds = %40
  %48 = getelementptr inbounds i8, ptr %46, i64 1376
  %49 = load ptr, ptr %48, align 8
  %50 = load ptr, ptr @Java_sun_awt_X11_XlibWrapper_XTextPropertyToStringList.stringClass, align 8
  %51 = tail call ptr %49(ptr noundef nonnull %0, i32 noundef 0, ptr noundef %50, ptr noundef null) #14
  br label %122

52:                                               ; preds = %40
  %53 = getelementptr inbounds i8, ptr %46, i64 1472
  %54 = load ptr, ptr %53, align 8
  %55 = call ptr %54(ptr noundef nonnull %0, ptr noundef %2, ptr noundef nonnull %8) #14
  %56 = icmp eq ptr %55, null
  br i1 %56, label %122, label %57

57:                                               ; preds = %52
  %58 = getelementptr inbounds i8, ptr %5, i64 8
  store i64 %3, ptr %58, align 8
  store ptr %55, ptr %5, align 8
  %59 = sext i32 %44 to i64
  %60 = getelementptr inbounds i8, ptr %5, i64 24
  store i64 %59, ptr %60, align 8
  %61 = getelementptr inbounds i8, ptr %5, i64 16
  store i32 8, ptr %61, align 8
  %62 = call i32 @XTextPropertyToStringList(ptr noundef nonnull %5, ptr noundef nonnull %6, ptr noundef nonnull %7) #14
  %63 = icmp eq i32 %62, 0
  %64 = load ptr, ptr %0, align 8
  %65 = getelementptr inbounds i8, ptr %64, i64 1536
  %66 = load ptr, ptr %65, align 8
  call void %66(ptr noundef nonnull %0, ptr noundef %2, ptr noundef nonnull %55, i32 noundef 2) #14
  br i1 %63, label %122, label %67

67:                                               ; preds = %57
  %68 = load i32, ptr %7, align 4
  %69 = icmp eq i32 %68, 0
  %70 = load ptr, ptr %0, align 8
  %71 = getelementptr inbounds i8, ptr %70, i64 1376
  %72 = load ptr, ptr %71, align 8
  %73 = load ptr, ptr @Java_sun_awt_X11_XlibWrapper_XTextPropertyToStringList.stringClass, align 8
  br i1 %69, label %74, label %76

74:                                               ; preds = %67
  %75 = call ptr %72(ptr noundef nonnull %0, i32 noundef 0, ptr noundef %73, ptr noundef null) #14
  br label %122

76:                                               ; preds = %67
  %77 = call ptr %72(ptr noundef nonnull %0, i32 noundef %68, ptr noundef %73, ptr noundef null) #14
  %78 = load ptr, ptr %0, align 8
  %79 = getelementptr inbounds i8, ptr %78, i64 1824
  %80 = load ptr, ptr %79, align 8
  %81 = call zeroext i8 %80(ptr noundef nonnull %0) #14
  %.not82 = icmp eq i8 %81, 0
  br i1 %.not82, label %82, label %.loopexit.sink.split.sink.split

82:                                               ; preds = %76
  %83 = icmp ne ptr %77, null
  %84 = load i32, ptr %7, align 4
  %85 = icmp sgt i32 %84, 0
  %or.cond = select i1 %83, i1 %85, i1 false
  br i1 %or.cond, label %.lr.ph, label %.loopexit

.lr.ph:                                           ; preds = %82, %109
  %indvars.iv = phi i64 [ %indvars.iv.next, %109 ], [ 0, %82 ]
  %86 = load ptr, ptr %0, align 8
  %87 = getelementptr inbounds i8, ptr %86, i64 1336
  %88 = load ptr, ptr %87, align 8
  %89 = load ptr, ptr %6, align 8
  %90 = getelementptr inbounds ptr, ptr %89, i64 %indvars.iv
  %91 = load ptr, ptr %90, align 8
  %92 = call ptr %88(ptr noundef nonnull %0, ptr noundef %91) #14
  %93 = load ptr, ptr %0, align 8
  %94 = getelementptr inbounds i8, ptr %93, i64 1824
  %95 = load ptr, ptr %94, align 8
  %96 = call zeroext i8 %95(ptr noundef nonnull %0) #14
  %.not83 = icmp eq i8 %96, 0
  br i1 %.not83, label %97, label %.loopexit.sink.split.sink.split

97:                                               ; preds = %.lr.ph
  %98 = icmp eq ptr %92, null
  br i1 %98, label %.loopexit, label %99

99:                                               ; preds = %97
  %100 = load ptr, ptr %0, align 8
  %101 = getelementptr inbounds i8, ptr %100, i64 1392
  %102 = load ptr, ptr %101, align 8
  %103 = trunc nuw nsw i64 %indvars.iv to i32
  call void %102(ptr noundef nonnull %0, ptr noundef nonnull %77, i32 noundef %103, ptr noundef nonnull %92) #14
  %104 = load ptr, ptr %0, align 8
  %105 = getelementptr inbounds i8, ptr %104, i64 1824
  %106 = load ptr, ptr %105, align 8
  %107 = call zeroext i8 %106(ptr noundef nonnull %0) #14
  %.not84 = icmp eq i8 %107, 0
  %108 = load ptr, ptr %0, align 8
  br i1 %.not84, label %109, label %.loopexit.sink.split

109:                                              ; preds = %99
  %110 = getelementptr inbounds i8, ptr %108, i64 184
  %111 = load ptr, ptr %110, align 8
  call void %111(ptr noundef nonnull %0, ptr noundef nonnull %92) #14
  %indvars.iv.next = add nuw nsw i64 %indvars.iv, 1
  %112 = load i32, ptr %7, align 4
  %113 = sext i32 %112 to i64
  %114 = icmp slt i64 %indvars.iv.next, %113
  br i1 %114, label %.lr.ph, label %.loopexit, !llvm.loop !11

.loopexit.sink.split.sink.split:                  ; preds = %.lr.ph, %76
  %115 = load ptr, ptr %0, align 8
  br label %.loopexit.sink.split

.loopexit.sink.split:                             ; preds = %99, %.loopexit.sink.split.sink.split
  %.sink = phi ptr [ %115, %.loopexit.sink.split.sink.split ], [ %108, %99 ]
  %116 = getelementptr inbounds i8, ptr %.sink, i64 128
  %117 = load ptr, ptr %116, align 8
  call void %117(ptr noundef nonnull %0) #14
  %118 = load ptr, ptr %0, align 8
  %119 = getelementptr inbounds i8, ptr %118, i64 136
  %120 = load ptr, ptr %119, align 8
  call void %120(ptr noundef nonnull %0) #14
  br label %.loopexit

.loopexit:                                        ; preds = %97, %109, %.loopexit.sink.split, %82
  %121 = load ptr, ptr %6, align 8
  call void @XFreeStringList(ptr noundef %121) #14
  br label %122

122:                                              ; preds = %57, %52, %27, %.loopexit, %74, %47, %39
  %.0 = phi ptr [ null, %39 ], [ %51, %47 ], [ %75, %74 ], [ %77, %.loopexit ], [ null, %27 ], [ null, %52 ], [ null, %57 ]
  ret ptr %.0
}